(dp0
S'22b'
p1
S'31'
p2
sS'22a'
p3
S'8'
p4
sS'14b'
p5
S'2'
p6
sS'14a'
p7
g6
sS'02'
p8
S'False'
p9
sS'03'
p10
S'1'
p11
sS'01'
p12
S'7'
p13
sS'06'
p14
g11
sS'07'
p15
g6
sS'04'
p16
S'45'
p17
sS'05'
p18
S'50'
p19
sS'08'
p20
g6
sS'09'
p21
S'3'
p22
sS'20'
p23
S'4'
p24
sS'21'
p25
g13
sS'11'
p26
g4
sS'10'
p27
S'5'
p28
sS'13'
p29
S'None'
p30
sS'12'
p31
S'6'
p32
sS'15'
p33
g23
sS'17'
p34
S'55'
p35
sS'16'
p36
g26
sS'19'
p37
g35
sS'18'
p38
S'66'
p39
s.