(dp0
S'22b'
p1
S'31'
p2
sS'22a'
p3
S'8'
p4
sS'14b'
p5
S'2'
p6
sS'14a'
p7
g6
sS'02'
p8
S'False'
p9
sS'03'
p10
S'1'
p11
sS'01'
p12
S'7'
p13
sS'06'
p14
g11
sS'07'
p15
g6
sS'04'
p16
S'45'
p17
sS'05'
p18
S'50'
p19
sS'08'
p20
g6
sS'09'
p21
S'3'
p22
sS'24'
p23
g22
sS'20'
p24
S'4'
p25
sS'21'
p26
g13
sS'11'
p27
g4
sS'10'
p28
S'5'
p29
sS'13'
p30
S'None'
p31
sS'12'
p32
S'6'
p33
sS'15'
p34
g24
sS'17'
p35
S'55'
p36
sS'16'
p37
g27
sS'19'
p38
g36
sS'18'
p39
S'66'
p40
sS'23'
p41
S'[42]'
p42
s.